target datalayout = "e-m:e-p270:32:32-p271:32:32-p272:64:64-i64:64-i128:128-f80:128-n8:16:32:64-S128"
target triple = "x86_64-pc-linux-gnu"

%class.bit_vector = type { i32, i32, ptr }

; Function Attrs: mustprogress nounwind uwtable
define linkonce_odr hidden noundef i32 @_ZN10bit_vector9num_wordsEj(i32 noundef %0) #6 comdat align 2 {
  %2 = alloca i32, align 4
  store i32 %0, ptr %2, align 4, !tbaa !8
  %3 = load i32, ptr %2, align 4, !tbaa !8
  %4 = add i32 %3, 31
  %5 = udiv i32 %4, 32
  ret i32 %5
}

; Function Attrs: mustprogress nounwind uwtable
define linkonce_odr hidden noundef i32 @_ZNK10bit_vector9num_wordsEv(ptr noundef nonnull align 8 dereferenceable(16) %0) #6 comdat align 2 {
  %2 = alloca ptr, align 8
  store ptr %0, ptr %2, align 8, !tbaa !3
  %3 = load ptr, ptr %2, align 8
  %4 = getelementptr inbounds nuw %class.bit_vector, ptr %3, i32 0, i32 0
  %5 = load i32, ptr %4, align 8, !tbaa !16
  %6 = call noundef i32 @_ZN10bit_vector9num_wordsEj(i32 noundef %5)
  ret i32 %6
}

; Function Attrs: mustprogress uwtable
define hidden noundef zeroext i1 @_ZNK10bit_vectoreqERKS_(ptr noundef nonnull align 8 dereferenceable(16) %0, ptr noundef nonnull align 8 dereferenceable(16) %1) #4 align 2 {
  %3 = alloca i1, align 1
  %4 = alloca ptr, align 8
  %5 = alloca ptr, align 8
  %6 = alloca i32, align 4
  %7 = alloca i32, align 4
  %8 = alloca i32, align 4
  %9 = alloca i32, align 4
  %10 = alloca i32, align 4
  store ptr %0, ptr %4, align 8, !tbaa !3
  store ptr %1, ptr %5, align 8, !tbaa !3
  %11 = load ptr, ptr %4, align 8
  %12 = getelementptr inbounds nuw %class.bit_vector, ptr %11, i32 0, i32 0
  %13 = load i32, ptr %12, align 8, !tbaa !16
  %14 = load ptr, ptr %5, align 8, !tbaa !3
  %15 = getelementptr inbounds nuw %class.bit_vector, ptr %14, i32 0, i32 0
  %16 = load i32, ptr %15, align 8, !tbaa !16
  %17 = icmp ne i32 %13, %16
  br i1 %17, label %18, label %19

18:                                               ; preds = %2
  store i1 false, ptr %3, align 1
  br label %82

19:                                               ; preds = %2
  call void @llvm.lifetime.start.p0(i64 4, ptr %6) #3
  %20 = call noundef i32 @_ZNK10bit_vector9num_wordsEv(ptr noundef nonnull align 8 dereferenceable(16) %11)
  store i32 %20, ptr %6, align 4, !tbaa !8
  %21 = load i32, ptr %6, align 4, !tbaa !8
  %22 = icmp eq i32 %21, 0
  br i1 %22, label %23, label %24

23:                                               ; preds = %19
  store i1 true, ptr %3, align 1
  store i32 1, ptr %7, align 4
  br label %81

24:                                               ; preds = %19
  call void @llvm.lifetime.start.p0(i64 4, ptr %8) #3
  store i32 0, ptr %8, align 4, !tbaa !8
  br label %25

25:                                               ; preds = %47, %24
  %26 = load i32, ptr %8, align 4, !tbaa !8
  %27 = load i32, ptr %6, align 4, !tbaa !8
  %28 = sub i32 %27, 1
  %29 = icmp ult i32 %26, %28
  br i1 %29, label %30, label %50

30:                                               ; preds = %25
  %31 = getelementptr inbounds nuw %class.bit_vector, ptr %11, i32 0, i32 2
  %32 = load ptr, ptr %31, align 8, !tbaa !10
  %33 = load i32, ptr %8, align 4, !tbaa !8
  %34 = zext i32 %33 to i64
  %35 = getelementptr inbounds nuw i32, ptr %32, i64 %34
  %36 = load i32, ptr %35, align 4, !tbaa !8
  %37 = load ptr, ptr %5, align 8, !tbaa !3
  %38 = getelementptr inbounds nuw %class.bit_vector, ptr %37, i32 0, i32 2
  %39 = load ptr, ptr %38, align 8, !tbaa !10
  %40 = load i32, ptr %8, align 4, !tbaa !8
  %41 = zext i32 %40 to i64
  %42 = getelementptr inbounds nuw i32, ptr %39, i64 %41
  %43 = load i32, ptr %42, align 4, !tbaa !8
  %44 = icmp ne i32 %36, %43
  br i1 %44, label %45, label %46

45:                                               ; preds = %30
  store i1 false, ptr %3, align 1
  store i32 1, ptr %7, align 4
  br label %80

46:                                               ; preds = %30
  br label %47

47:                                               ; preds = %46
  %48 = load i32, ptr %8, align 4, !tbaa !8
  %49 = add i32 %48, 1
  store i32 %49, ptr %8, align 4, !tbaa !8
  br label %25, !llvm.loop !24

50:                                               ; preds = %25
  call void @llvm.lifetime.start.p0(i64 4, ptr %9) #3
  %51 = load ptr, ptr %5, align 8, !tbaa !3
  %52 = getelementptr inbounds nuw %class.bit_vector, ptr %51, i32 0, i32 0
  %53 = load i32, ptr %52, align 8, !tbaa !16
  %54 = urem i32 %53, 32
  store i32 %54, ptr %9, align 4, !tbaa !8
  call void @llvm.lifetime.start.p0(i64 4, ptr %10) #3
  %55 = load i32, ptr %9, align 4, !tbaa !8
  %56 = shl i32 1, %55
  %57 = sub i32 %56, 1
  store i32 %57, ptr %10, align 4, !tbaa !8
  %58 = load i32, ptr %10, align 4, !tbaa !8
  %59 = icmp eq i32 %58, 0
  br i1 %59, label %60, label %61

60:                                               ; preds = %50
  store i32 -1, ptr %10, align 4, !tbaa !8
  br label %61

61:                                               ; preds = %60, %50
  %62 = getelementptr inbounds nuw %class.bit_vector, ptr %11, i32 0, i32 2
  %63 = load ptr, ptr %62, align 8, !tbaa !10
  %64 = load i32, ptr %8, align 4, !tbaa !8
  %65 = zext i32 %64 to i64
  %66 = getelementptr inbounds nuw i32, ptr %63, i64 %65
  %67 = load i32, ptr %66, align 4, !tbaa !8
  %68 = load i32, ptr %10, align 4, !tbaa !8
  %69 = and i32 %67, %68
  %70 = load ptr, ptr %5, align 8, !tbaa !3
  %71 = getelementptr inbounds nuw %class.bit_vector, ptr %70, i32 0, i32 2
  %72 = load ptr, ptr %71, align 8, !tbaa !10
  %73 = load i32, ptr %8, align 4, !tbaa !8
  %74 = zext i32 %73 to i64
  %75 = getelementptr inbounds nuw i32, ptr %72, i64 %74
  %76 = load i32, ptr %75, align 4, !tbaa !8
  %77 = load i32, ptr %10, align 4, !tbaa !8
  %78 = and i32 %76, %77
  %79 = icmp eq i32 %69, %78
  store i1 %79, ptr %3, align 1
  store i32 1, ptr %7, align 4
  call void @llvm.lifetime.end.p0(i64 4, ptr %10) #3
  call void @llvm.lifetime.end.p0(i64 4, ptr %9) #3
  br label %80

80:                                               ; preds = %61, %45
  call void @llvm.lifetime.end.p0(i64 4, ptr %8) #3
  br label %81

81:                                               ; preds = %80, %23
  call void @llvm.lifetime.end.p0(i64 4, ptr %6) #3
  br label %82

82:                                               ; preds = %81, %18
  %83 = load i1, ptr %3, align 1
  ret i1 %83
}