; Function Attrs: mustprogress nofree norecurse nosync nounwind willreturn memory(read, inaccessiblemem: none) uwtable
define hidden noundef zeroext i1 @_ZNK10bit_vectoreqERKS_(ptr noundef nonnull readonly align 8 captures(none) dereferenceable(16) %0, ptr noundef nonnull readonly align 8 captures(none) dereferenceable(16) %1) local_unnamed_addr #5 align 2 {
  %3 = load i32, ptr %0, align 8, !tbaa !11
  %4 = load i32, ptr %1, align 8, !tbaa !11
  %.not = icmp eq i32 %3, %4
  br i1 %.not, label %5, label %.loopexit

5:                                                ; preds = %2
  %6 = add i32 %3, 31
  %7 = icmp ult i32 %6, 32
  br i1 %7, label %.loopexit, label %.preheader

.preheader:                                       ; preds = %5
  %8 = lshr i32 %6, 5
  %9 = add nsw i32 %8, -1
  %.not22 = icmp eq i32 %9, 0
  %.phi.trans.insert = getelementptr inbounds nuw i8, ptr %0, i64 8
  %.pre = load ptr, ptr %.phi.trans.insert, align 8, !tbaa !3
  %.phi.trans.insert24 = getelementptr inbounds nuw i8, ptr %1, i64 8
  %.pre25 = load ptr, ptr %.phi.trans.insert24, align 8, !tbaa !3
  br i1 %.not22, label %._crit_edge, label %.lr.ph

.lr.ph:                                           ; preds = %.preheader
  %10 = add nsw i32 %8, -1
  %wide.trip.count = zext nneg i32 %9 to i64
  br label %11

11:                                               ; preds = %.lr.ph, %16
  %indvars.iv = phi i64 [ 0, %.lr.ph ], [ %indvars.iv.next, %16 ]
  %12 = getelementptr inbounds nuw i32, ptr %.pre, i64 %indvars.iv
  %13 = load i32, ptr %12, align 4, !tbaa !12
  %14 = getelementptr inbounds nuw i32, ptr %.pre25, i64 %indvars.iv
  %15 = load i32, ptr %14, align 4, !tbaa !12
  %.not19 = icmp eq i32 %13, %15
  br i1 %.not19, label %16, label %.loopexit

16:                                               ; preds = %11
  %indvars.iv.next = add nuw nsw i64 %indvars.iv, 1
  %exitcond.not = icmp eq i64 %indvars.iv.next, %wide.trip.count
  br i1 %exitcond.not, label %._crit_edge.loopexit, label %11, !llvm.loop !16

._crit_edge.loopexit:                             ; preds = %16
  %17 = zext i32 %10 to i64
  br label %._crit_edge

._crit_edge:                                      ; preds = %.preheader, %._crit_edge.loopexit
  %.017.lcssa = phi i64 [ %17, %._crit_edge.loopexit ], [ 0, %.preheader ]
  %18 = and i32 %3, 31
  %notmask = shl nsw i32 -1, %18
  %19 = xor i32 %notmask, -1
  %20 = icmp eq i32 %18, 0
  %spec.store.select = select i1 %20, i32 -1, i32 %19
  %21 = getelementptr inbounds nuw i32, ptr %.pre, i64 %.017.lcssa
  %22 = load i32, ptr %21, align 4, !tbaa !12
  %23 = getelementptr inbounds nuw i32, ptr %.pre25, i64 %.017.lcssa
  %24 = load i32, ptr %23, align 4, !tbaa !12
  %25 = xor i32 %24, %22
  %26 = and i32 %25, %spec.store.select
  %27 = icmp eq i32 %26, 0
  br label %.loopexit

.loopexit:                                        ; preds = %11, %5, %._crit_edge, %2
  %.0 = phi i1 [ false, %2 ], [ true, %5 ], [ %27, %._crit_edge ], [ false, %11 ]
  ret i1 %.0
}